ARM GAS  /tmp/ccf8WyXC.s 			page 1


   1              		.cpu cortex-m4
   2              		.arch armv7e-m
   3              		.fpu fpv4-sp-d16
   4              		.eabi_attribute 27, 1
   5              		.eabi_attribute 28, 1
   6              		.eabi_attribute 20, 1
   7              		.eabi_attribute 21, 1
   8              		.eabi_attribute 23, 3
   9              		.eabi_attribute 24, 1
  10              		.eabi_attribute 25, 1
  11              		.eabi_attribute 26, 1
  12              		.eabi_attribute 30, 1
  13              		.eabi_attribute 34, 1
  14              		.eabi_attribute 18, 4
  15              		.file	"usart.c"
  16              		.text
  17              	.Ltext0:
  18              		.cfi_sections	.debug_frame
  19              		.file 1 "Core/Src/usart.c"
  20              		.section	.text.MX_USART1_UART_Init,"ax",%progbits
  21              		.align	1
  22              		.global	MX_USART1_UART_Init
  23              		.syntax unified
  24              		.thumb
  25              		.thumb_func
  27              	MX_USART1_UART_Init:
  28              	.LFB134:
   1:Core/Src/usart.c **** /**
   2:Core/Src/usart.c ****   ******************************************************************************
   3:Core/Src/usart.c ****   * @file    usart.c
   4:Core/Src/usart.c ****   * @brief   UART Configuration for MIMIC
   5:Core/Src/usart.c ****   ******************************************************************************
   6:Core/Src/usart.c ****   */
   7:Core/Src/usart.c **** 
   8:Core/Src/usart.c **** #include "usart.h"
   9:Core/Src/usart.c **** 
  10:Core/Src/usart.c **** /* UART Handles */
  11:Core/Src/usart.c **** UART_HandleTypeDef huart1;
  12:Core/Src/usart.c **** UART_HandleTypeDef huart2;
  13:Core/Src/usart.c **** UART_HandleTypeDef huart6;
  14:Core/Src/usart.c **** 
  15:Core/Src/usart.c **** /**
  16:Core/Src/usart.c ****   * @brief USART1 Initialization Function (Host Interface)
  17:Core/Src/usart.c ****   * @note  USART1 uses PA9 (TX) and PA10 (RX)
  18:Core/Src/usart.c ****   */
  19:Core/Src/usart.c **** void MX_USART1_UART_Init(void)
  20:Core/Src/usart.c **** {
  29              		.loc 1 20 1 view -0
  30              		.cfi_startproc
  31              		@ args = 0, pretend = 0, frame = 0
  32              		@ frame_needed = 0, uses_anonymous_args = 0
  33 0000 08B5     		push	{r3, lr}
  34              	.LCFI0:
  35              		.cfi_def_cfa_offset 8
  36              		.cfi_offset 3, -8
  37              		.cfi_offset 14, -4
  21:Core/Src/usart.c ****     huart1.Instance = USART1;
ARM GAS  /tmp/ccf8WyXC.s 			page 2


  38              		.loc 1 21 5 view .LVU1
  39              		.loc 1 21 21 is_stmt 0 view .LVU2
  40 0002 0A48     		ldr	r0, .L5
  41 0004 0A4B     		ldr	r3, .L5+4
  42 0006 0360     		str	r3, [r0]
  22:Core/Src/usart.c ****     huart1.Init.BaudRate = 115200;
  43              		.loc 1 22 5 is_stmt 1 view .LVU3
  44              		.loc 1 22 26 is_stmt 0 view .LVU4
  45 0008 4FF4E133 		mov	r3, #115200
  46 000c 4360     		str	r3, [r0, #4]
  23:Core/Src/usart.c ****     huart1.Init.WordLength = UART_WORDLENGTH_8B;
  47              		.loc 1 23 5 is_stmt 1 view .LVU5
  48              		.loc 1 23 28 is_stmt 0 view .LVU6
  49 000e 0023     		movs	r3, #0
  50 0010 8360     		str	r3, [r0, #8]
  24:Core/Src/usart.c ****     huart1.Init.StopBits = UART_STOPBITS_1;
  51              		.loc 1 24 5 is_stmt 1 view .LVU7
  52              		.loc 1 24 26 is_stmt 0 view .LVU8
  53 0012 C360     		str	r3, [r0, #12]
  25:Core/Src/usart.c ****     huart1.Init.Parity = UART_PARITY_NONE;
  54              		.loc 1 25 5 is_stmt 1 view .LVU9
  55              		.loc 1 25 24 is_stmt 0 view .LVU10
  56 0014 0361     		str	r3, [r0, #16]
  26:Core/Src/usart.c ****     huart1.Init.Mode = UART_MODE_TX_RX;
  57              		.loc 1 26 5 is_stmt 1 view .LVU11
  58              		.loc 1 26 22 is_stmt 0 view .LVU12
  59 0016 0C22     		movs	r2, #12
  60 0018 4261     		str	r2, [r0, #20]
  27:Core/Src/usart.c ****     huart1.Init.HwFlowCtl = UART_HWCONTROL_NONE;
  61              		.loc 1 27 5 is_stmt 1 view .LVU13
  62              		.loc 1 27 27 is_stmt 0 view .LVU14
  63 001a 8361     		str	r3, [r0, #24]
  28:Core/Src/usart.c ****     huart1.Init.OverSampling = UART_OVERSAMPLING_16;
  64              		.loc 1 28 5 is_stmt 1 view .LVU15
  65              		.loc 1 28 30 is_stmt 0 view .LVU16
  66 001c C361     		str	r3, [r0, #28]
  29:Core/Src/usart.c ****     
  30:Core/Src/usart.c ****     if (HAL_UART_Init(&huart1) != HAL_OK)
  67              		.loc 1 30 5 is_stmt 1 view .LVU17
  68              		.loc 1 30 9 is_stmt 0 view .LVU18
  69 001e FFF7FEFF 		bl	HAL_UART_Init
  70              	.LVL0:
  71              		.loc 1 30 8 discriminator 1 view .LVU19
  72 0022 00B9     		cbnz	r0, .L4
  73              	.L1:
  31:Core/Src/usart.c ****     {
  32:Core/Src/usart.c ****         Error_Handler();
  33:Core/Src/usart.c ****     }
  34:Core/Src/usart.c **** }
  74              		.loc 1 34 1 view .LVU20
  75 0024 08BD     		pop	{r3, pc}
  76              	.L4:
  32:Core/Src/usart.c ****     }
  77              		.loc 1 32 9 is_stmt 1 view .LVU21
  78 0026 FFF7FEFF 		bl	Error_Handler
  79              	.LVL1:
  80              		.loc 1 34 1 is_stmt 0 view .LVU22
ARM GAS  /tmp/ccf8WyXC.s 			page 3


  81 002a FBE7     		b	.L1
  82              	.L6:
  83              		.align	2
  84              	.L5:
  85 002c 00000000 		.word	huart1
  86 0030 00100140 		.word	1073811456
  87              		.cfi_endproc
  88              	.LFE134:
  90              		.section	.text.HAL_UART_MspInit,"ax",%progbits
  91              		.align	1
  92              		.global	HAL_UART_MspInit
  93              		.syntax unified
  94              		.thumb
  95              		.thumb_func
  97              	HAL_UART_MspInit:
  98              	.LVL2:
  99              	.LFB135:
  35:Core/Src/usart.c **** 
  36:Core/Src/usart.c **** /**
  37:Core/Src/usart.c ****   * @brief UART MSP Initialization
  38:Core/Src/usart.c ****   *        This function configures the hardware resources for UART
  39:Core/Src/usart.c ****   */
  40:Core/Src/usart.c **** void HAL_UART_MspInit(UART_HandleTypeDef* huart)
  41:Core/Src/usart.c **** {
 100              		.loc 1 41 1 is_stmt 1 view -0
 101              		.cfi_startproc
 102              		@ args = 0, pretend = 0, frame = 48
 103              		@ frame_needed = 0, uses_anonymous_args = 0
 104              		.loc 1 41 1 is_stmt 0 view .LVU24
 105 0000 00B5     		push	{lr}
 106              	.LCFI1:
 107              		.cfi_def_cfa_offset 4
 108              		.cfi_offset 14, -4
 109 0002 8DB0     		sub	sp, sp, #52
 110              	.LCFI2:
 111              		.cfi_def_cfa_offset 56
  42:Core/Src/usart.c ****     GPIO_InitTypeDef GPIO_InitStruct = {0};
 112              		.loc 1 42 5 is_stmt 1 view .LVU25
 113              		.loc 1 42 22 is_stmt 0 view .LVU26
 114 0004 0023     		movs	r3, #0
 115 0006 0793     		str	r3, [sp, #28]
 116 0008 0893     		str	r3, [sp, #32]
 117 000a 0993     		str	r3, [sp, #36]
 118 000c 0A93     		str	r3, [sp, #40]
 119 000e 0B93     		str	r3, [sp, #44]
  43:Core/Src/usart.c ****     
  44:Core/Src/usart.c ****     if (huart->Instance == USART2)
 120              		.loc 1 44 5 is_stmt 1 view .LVU27
 121              		.loc 1 44 14 is_stmt 0 view .LVU28
 122 0010 0368     		ldr	r3, [r0]
 123              		.loc 1 44 8 view .LVU29
 124 0012 4A4A     		ldr	r2, .L15
 125 0014 9342     		cmp	r3, r2
 126 0016 07D0     		beq	.L12
  45:Core/Src/usart.c ****     {
  46:Core/Src/usart.c ****         /* Enable clocks */
  47:Core/Src/usart.c ****         __HAL_RCC_USART2_CLK_ENABLE();
ARM GAS  /tmp/ccf8WyXC.s 			page 4


  48:Core/Src/usart.c ****         __HAL_RCC_GPIOA_CLK_ENABLE();
  49:Core/Src/usart.c ****         
  50:Core/Src/usart.c ****         /* USART2 GPIO Configuration
  51:Core/Src/usart.c ****          * PA2 -> USART2_TX
  52:Core/Src/usart.c ****          * PA3 -> USART2_RX
  53:Core/Src/usart.c ****          */
  54:Core/Src/usart.c ****         GPIO_InitStruct.Pin = GPIO_PIN_2 | GPIO_PIN_3;
  55:Core/Src/usart.c ****         GPIO_InitStruct.Mode = GPIO_MODE_AF_PP;
  56:Core/Src/usart.c ****         GPIO_InitStruct.Pull = GPIO_PULLUP;
  57:Core/Src/usart.c ****         GPIO_InitStruct.Speed = GPIO_SPEED_FREQ_VERY_HIGH;
  58:Core/Src/usart.c ****         GPIO_InitStruct.Alternate = GPIO_AF7_USART2;
  59:Core/Src/usart.c ****         HAL_GPIO_Init(GPIOA, &GPIO_InitStruct);
  60:Core/Src/usart.c ****         
  61:Core/Src/usart.c ****         /* Enable USART2 interrupt */
  62:Core/Src/usart.c ****         HAL_NVIC_SetPriority(USART2_IRQn, 0, 0);
  63:Core/Src/usart.c ****         HAL_NVIC_EnableIRQ(USART2_IRQn);
  64:Core/Src/usart.c ****     }
  65:Core/Src/usart.c ****     else if (huart->Instance == USART1)
 127              		.loc 1 65 10 is_stmt 1 view .LVU30
 128              		.loc 1 65 13 is_stmt 0 view .LVU31
 129 0018 494A     		ldr	r2, .L15+4
 130 001a 9342     		cmp	r3, r2
 131 001c 31D0     		beq	.L13
  66:Core/Src/usart.c ****     {
  67:Core/Src/usart.c ****         /* Enable clocks */
  68:Core/Src/usart.c ****         __HAL_RCC_USART1_CLK_ENABLE();
  69:Core/Src/usart.c ****         __HAL_RCC_GPIOA_CLK_ENABLE();
  70:Core/Src/usart.c ****         
  71:Core/Src/usart.c ****         /* USART1 GPIO Configuration
  72:Core/Src/usart.c ****          * PA9  -> USART1_TX
  73:Core/Src/usart.c ****          * PA10 -> USART1_RX
  74:Core/Src/usart.c ****          */
  75:Core/Src/usart.c ****         GPIO_InitStruct.Pin = GPIO_PIN_9 | GPIO_PIN_10;
  76:Core/Src/usart.c ****         GPIO_InitStruct.Mode = GPIO_MODE_AF_PP;
  77:Core/Src/usart.c ****         GPIO_InitStruct.Pull = GPIO_PULLUP;
  78:Core/Src/usart.c ****         GPIO_InitStruct.Speed = GPIO_SPEED_FREQ_VERY_HIGH;
  79:Core/Src/usart.c ****         GPIO_InitStruct.Alternate = GPIO_AF7_USART1;
  80:Core/Src/usart.c ****         HAL_GPIO_Init(GPIOA, &GPIO_InitStruct);
  81:Core/Src/usart.c ****         
  82:Core/Src/usart.c ****         /* Enable USART1 interrupt */
  83:Core/Src/usart.c ****         HAL_NVIC_SetPriority(USART1_IRQn, 0, 0);
  84:Core/Src/usart.c ****         HAL_NVIC_EnableIRQ(USART1_IRQn);
  85:Core/Src/usart.c ****     }
  86:Core/Src/usart.c ****     else if (huart->Instance == USART6)
 132              		.loc 1 86 10 is_stmt 1 view .LVU32
 133              		.loc 1 86 13 is_stmt 0 view .LVU33
 134 001e 494A     		ldr	r2, .L15+8
 135 0020 9342     		cmp	r3, r2
 136 0022 5CD0     		beq	.L14
 137              	.LVL3:
 138              	.L7:
  87:Core/Src/usart.c ****     {
  88:Core/Src/usart.c ****         /* Enable clocks */
  89:Core/Src/usart.c ****         __HAL_RCC_USART6_CLK_ENABLE();
  90:Core/Src/usart.c ****         __HAL_RCC_GPIOA_CLK_ENABLE();
  91:Core/Src/usart.c ****         
  92:Core/Src/usart.c ****         /* USART6 GPIO Configuration
ARM GAS  /tmp/ccf8WyXC.s 			page 5


  93:Core/Src/usart.c ****          * PA11 -> USART6_TX
  94:Core/Src/usart.c ****          * PA12 -> USART6_RX
  95:Core/Src/usart.c ****          */
  96:Core/Src/usart.c ****         GPIO_InitStruct.Pin = GPIO_PIN_11 | GPIO_PIN_12;
  97:Core/Src/usart.c ****         GPIO_InitStruct.Mode = GPIO_MODE_AF_PP;
  98:Core/Src/usart.c ****         GPIO_InitStruct.Pull = GPIO_PULLUP;
  99:Core/Src/usart.c ****         GPIO_InitStruct.Speed = GPIO_SPEED_FREQ_VERY_HIGH;
 100:Core/Src/usart.c ****         GPIO_InitStruct.Alternate = GPIO_AF8_USART6;
 101:Core/Src/usart.c ****         HAL_GPIO_Init(GPIOA, &GPIO_InitStruct);
 102:Core/Src/usart.c ****         
 103:Core/Src/usart.c ****         /* Enable USART6 interrupt */
 104:Core/Src/usart.c ****         HAL_NVIC_SetPriority(USART6_IRQn, 0, 0);
 105:Core/Src/usart.c ****         HAL_NVIC_EnableIRQ(USART6_IRQn);
 106:Core/Src/usart.c ****     }
 107:Core/Src/usart.c **** }
 139              		.loc 1 107 1 view .LVU34
 140 0024 0DB0     		add	sp, sp, #52
 141              	.LCFI3:
 142              		.cfi_remember_state
 143              		.cfi_def_cfa_offset 4
 144              		@ sp needed
 145 0026 00BD     		pop	{pc}
 146              	.LVL4:
 147              	.L12:
 148              	.LCFI4:
 149              		.cfi_restore_state
  47:Core/Src/usart.c ****         __HAL_RCC_GPIOA_CLK_ENABLE();
 150              		.loc 1 47 9 is_stmt 1 view .LVU35
 151              	.LBB2:
  47:Core/Src/usart.c ****         __HAL_RCC_GPIOA_CLK_ENABLE();
 152              		.loc 1 47 9 view .LVU36
 153 0028 0021     		movs	r1, #0
 154 002a 0191     		str	r1, [sp, #4]
  47:Core/Src/usart.c ****         __HAL_RCC_GPIOA_CLK_ENABLE();
 155              		.loc 1 47 9 view .LVU37
 156 002c 464B     		ldr	r3, .L15+12
 157 002e 1A6C     		ldr	r2, [r3, #64]
 158 0030 42F40032 		orr	r2, r2, #131072
 159 0034 1A64     		str	r2, [r3, #64]
  47:Core/Src/usart.c ****         __HAL_RCC_GPIOA_CLK_ENABLE();
 160              		.loc 1 47 9 view .LVU38
 161 0036 1A6C     		ldr	r2, [r3, #64]
 162 0038 02F40032 		and	r2, r2, #131072
 163 003c 0192     		str	r2, [sp, #4]
  47:Core/Src/usart.c ****         __HAL_RCC_GPIOA_CLK_ENABLE();
 164              		.loc 1 47 9 view .LVU39
 165 003e 019A     		ldr	r2, [sp, #4]
 166              	.LBE2:
  47:Core/Src/usart.c ****         __HAL_RCC_GPIOA_CLK_ENABLE();
 167              		.loc 1 47 9 view .LVU40
  48:Core/Src/usart.c ****         
 168              		.loc 1 48 9 view .LVU41
 169              	.LBB3:
  48:Core/Src/usart.c ****         
 170              		.loc 1 48 9 view .LVU42
 171 0040 0291     		str	r1, [sp, #8]
  48:Core/Src/usart.c ****         
ARM GAS  /tmp/ccf8WyXC.s 			page 6


 172              		.loc 1 48 9 view .LVU43
 173 0042 1A6B     		ldr	r2, [r3, #48]
 174 0044 42F00102 		orr	r2, r2, #1
 175 0048 1A63     		str	r2, [r3, #48]
  48:Core/Src/usart.c ****         
 176              		.loc 1 48 9 view .LVU44
 177 004a 1B6B     		ldr	r3, [r3, #48]
 178 004c 03F00103 		and	r3, r3, #1
 179 0050 0293     		str	r3, [sp, #8]
  48:Core/Src/usart.c ****         
 180              		.loc 1 48 9 view .LVU45
 181 0052 029B     		ldr	r3, [sp, #8]
 182              	.LBE3:
  48:Core/Src/usart.c ****         
 183              		.loc 1 48 9 view .LVU46
  54:Core/Src/usart.c ****         GPIO_InitStruct.Mode = GPIO_MODE_AF_PP;
 184              		.loc 1 54 9 view .LVU47
  54:Core/Src/usart.c ****         GPIO_InitStruct.Mode = GPIO_MODE_AF_PP;
 185              		.loc 1 54 29 is_stmt 0 view .LVU48
 186 0054 0C23     		movs	r3, #12
 187 0056 0793     		str	r3, [sp, #28]
  55:Core/Src/usart.c ****         GPIO_InitStruct.Pull = GPIO_PULLUP;
 188              		.loc 1 55 9 is_stmt 1 view .LVU49
  55:Core/Src/usart.c ****         GPIO_InitStruct.Pull = GPIO_PULLUP;
 189              		.loc 1 55 30 is_stmt 0 view .LVU50
 190 0058 0223     		movs	r3, #2
 191 005a 0893     		str	r3, [sp, #32]
  56:Core/Src/usart.c ****         GPIO_InitStruct.Speed = GPIO_SPEED_FREQ_VERY_HIGH;
 192              		.loc 1 56 9 is_stmt 1 view .LVU51
  56:Core/Src/usart.c ****         GPIO_InitStruct.Speed = GPIO_SPEED_FREQ_VERY_HIGH;
 193              		.loc 1 56 30 is_stmt 0 view .LVU52
 194 005c 0123     		movs	r3, #1
 195 005e 0993     		str	r3, [sp, #36]
  57:Core/Src/usart.c ****         GPIO_InitStruct.Alternate = GPIO_AF7_USART2;
 196              		.loc 1 57 9 is_stmt 1 view .LVU53
  57:Core/Src/usart.c ****         GPIO_InitStruct.Alternate = GPIO_AF7_USART2;
 197              		.loc 1 57 31 is_stmt 0 view .LVU54
 198 0060 0323     		movs	r3, #3
 199 0062 0A93     		str	r3, [sp, #40]
  58:Core/Src/usart.c ****         HAL_GPIO_Init(GPIOA, &GPIO_InitStruct);
 200              		.loc 1 58 9 is_stmt 1 view .LVU55
  58:Core/Src/usart.c ****         HAL_GPIO_Init(GPIOA, &GPIO_InitStruct);
 201              		.loc 1 58 35 is_stmt 0 view .LVU56
 202 0064 0723     		movs	r3, #7
 203 0066 0B93     		str	r3, [sp, #44]
  59:Core/Src/usart.c ****         
 204              		.loc 1 59 9 is_stmt 1 view .LVU57
 205 0068 07A9     		add	r1, sp, #28
 206 006a 3848     		ldr	r0, .L15+16
 207              	.LVL5:
  59:Core/Src/usart.c ****         
 208              		.loc 1 59 9 is_stmt 0 view .LVU58
 209 006c FFF7FEFF 		bl	HAL_GPIO_Init
 210              	.LVL6:
  62:Core/Src/usart.c ****         HAL_NVIC_EnableIRQ(USART2_IRQn);
 211              		.loc 1 62 9 is_stmt 1 view .LVU59
 212 0070 0022     		movs	r2, #0
ARM GAS  /tmp/ccf8WyXC.s 			page 7


 213 0072 1146     		mov	r1, r2
 214 0074 2620     		movs	r0, #38
 215 0076 FFF7FEFF 		bl	HAL_NVIC_SetPriority
 216              	.LVL7:
  63:Core/Src/usart.c ****     }
 217              		.loc 1 63 9 view .LVU60
 218 007a 2620     		movs	r0, #38
 219 007c FFF7FEFF 		bl	HAL_NVIC_EnableIRQ
 220              	.LVL8:
 221 0080 D0E7     		b	.L7
 222              	.LVL9:
 223              	.L13:
  68:Core/Src/usart.c ****         __HAL_RCC_GPIOA_CLK_ENABLE();
 224              		.loc 1 68 9 view .LVU61
 225              	.LBB4:
  68:Core/Src/usart.c ****         __HAL_RCC_GPIOA_CLK_ENABLE();
 226              		.loc 1 68 9 view .LVU62
 227 0082 0021     		movs	r1, #0
 228 0084 0391     		str	r1, [sp, #12]
  68:Core/Src/usart.c ****         __HAL_RCC_GPIOA_CLK_ENABLE();
 229              		.loc 1 68 9 view .LVU63
 230 0086 304B     		ldr	r3, .L15+12
 231 0088 5A6C     		ldr	r2, [r3, #68]
 232 008a 42F01002 		orr	r2, r2, #16
 233 008e 5A64     		str	r2, [r3, #68]
  68:Core/Src/usart.c ****         __HAL_RCC_GPIOA_CLK_ENABLE();
 234              		.loc 1 68 9 view .LVU64
 235 0090 5A6C     		ldr	r2, [r3, #68]
 236 0092 02F01002 		and	r2, r2, #16
 237 0096 0392     		str	r2, [sp, #12]
  68:Core/Src/usart.c ****         __HAL_RCC_GPIOA_CLK_ENABLE();
 238              		.loc 1 68 9 view .LVU65
 239 0098 039A     		ldr	r2, [sp, #12]
 240              	.LBE4:
  68:Core/Src/usart.c ****         __HAL_RCC_GPIOA_CLK_ENABLE();
 241              		.loc 1 68 9 view .LVU66
  69:Core/Src/usart.c ****         
 242              		.loc 1 69 9 view .LVU67
 243              	.LBB5:
  69:Core/Src/usart.c ****         
 244              		.loc 1 69 9 view .LVU68
 245 009a 0491     		str	r1, [sp, #16]
  69:Core/Src/usart.c ****         
 246              		.loc 1 69 9 view .LVU69
 247 009c 1A6B     		ldr	r2, [r3, #48]
 248 009e 42F00102 		orr	r2, r2, #1
 249 00a2 1A63     		str	r2, [r3, #48]
  69:Core/Src/usart.c ****         
 250              		.loc 1 69 9 view .LVU70
 251 00a4 1B6B     		ldr	r3, [r3, #48]
 252 00a6 03F00103 		and	r3, r3, #1
 253 00aa 0493     		str	r3, [sp, #16]
  69:Core/Src/usart.c ****         
 254              		.loc 1 69 9 view .LVU71
 255 00ac 049B     		ldr	r3, [sp, #16]
 256              	.LBE5:
  69:Core/Src/usart.c ****         
ARM GAS  /tmp/ccf8WyXC.s 			page 8


 257              		.loc 1 69 9 view .LVU72
  75:Core/Src/usart.c ****         GPIO_InitStruct.Mode = GPIO_MODE_AF_PP;
 258              		.loc 1 75 9 view .LVU73
  75:Core/Src/usart.c ****         GPIO_InitStruct.Mode = GPIO_MODE_AF_PP;
 259              		.loc 1 75 29 is_stmt 0 view .LVU74
 260 00ae 4FF4C063 		mov	r3, #1536
 261 00b2 0793     		str	r3, [sp, #28]
  76:Core/Src/usart.c ****         GPIO_InitStruct.Pull = GPIO_PULLUP;
 262              		.loc 1 76 9 is_stmt 1 view .LVU75
  76:Core/Src/usart.c ****         GPIO_InitStruct.Pull = GPIO_PULLUP;
 263              		.loc 1 76 30 is_stmt 0 view .LVU76
 264 00b4 0223     		movs	r3, #2
 265 00b6 0893     		str	r3, [sp, #32]
  77:Core/Src/usart.c ****         GPIO_InitStruct.Speed = GPIO_SPEED_FREQ_VERY_HIGH;
 266              		.loc 1 77 9 is_stmt 1 view .LVU77
  77:Core/Src/usart.c ****         GPIO_InitStruct.Speed = GPIO_SPEED_FREQ_VERY_HIGH;
 267              		.loc 1 77 30 is_stmt 0 view .LVU78
 268 00b8 0123     		movs	r3, #1
 269 00ba 0993     		str	r3, [sp, #36]
  78:Core/Src/usart.c ****         GPIO_InitStruct.Alternate = GPIO_AF7_USART1;
 270              		.loc 1 78 9 is_stmt 1 view .LVU79
  78:Core/Src/usart.c ****         GPIO_InitStruct.Alternate = GPIO_AF7_USART1;
 271              		.loc 1 78 31 is_stmt 0 view .LVU80
 272 00bc 0323     		movs	r3, #3
 273 00be 0A93     		str	r3, [sp, #40]
  79:Core/Src/usart.c ****         HAL_GPIO_Init(GPIOA, &GPIO_InitStruct);
 274              		.loc 1 79 9 is_stmt 1 view .LVU81
  79:Core/Src/usart.c ****         HAL_GPIO_Init(GPIOA, &GPIO_InitStruct);
 275              		.loc 1 79 35 is_stmt 0 view .LVU82
 276 00c0 0723     		movs	r3, #7
 277 00c2 0B93     		str	r3, [sp, #44]
  80:Core/Src/usart.c ****         
 278              		.loc 1 80 9 is_stmt 1 view .LVU83
 279 00c4 07A9     		add	r1, sp, #28
 280 00c6 2148     		ldr	r0, .L15+16
 281              	.LVL10:
  80:Core/Src/usart.c ****         
 282              		.loc 1 80 9 is_stmt 0 view .LVU84
 283 00c8 FFF7FEFF 		bl	HAL_GPIO_Init
 284              	.LVL11:
  83:Core/Src/usart.c ****         HAL_NVIC_EnableIRQ(USART1_IRQn);
 285              		.loc 1 83 9 is_stmt 1 view .LVU85
 286 00cc 0022     		movs	r2, #0
 287 00ce 1146     		mov	r1, r2
 288 00d0 2520     		movs	r0, #37
 289 00d2 FFF7FEFF 		bl	HAL_NVIC_SetPriority
 290              	.LVL12:
  84:Core/Src/usart.c ****     }
 291              		.loc 1 84 9 view .LVU86
 292 00d6 2520     		movs	r0, #37
 293 00d8 FFF7FEFF 		bl	HAL_NVIC_EnableIRQ
 294              	.LVL13:
 295 00dc A2E7     		b	.L7
 296              	.LVL14:
 297              	.L14:
  89:Core/Src/usart.c ****         __HAL_RCC_GPIOA_CLK_ENABLE();
 298              		.loc 1 89 9 view .LVU87
ARM GAS  /tmp/ccf8WyXC.s 			page 9


 299              	.LBB6:
  89:Core/Src/usart.c ****         __HAL_RCC_GPIOA_CLK_ENABLE();
 300              		.loc 1 89 9 view .LVU88
 301 00de 0021     		movs	r1, #0
 302 00e0 0591     		str	r1, [sp, #20]
  89:Core/Src/usart.c ****         __HAL_RCC_GPIOA_CLK_ENABLE();
 303              		.loc 1 89 9 view .LVU89
 304 00e2 194B     		ldr	r3, .L15+12
 305 00e4 5A6C     		ldr	r2, [r3, #68]
 306 00e6 42F02002 		orr	r2, r2, #32
 307 00ea 5A64     		str	r2, [r3, #68]
  89:Core/Src/usart.c ****         __HAL_RCC_GPIOA_CLK_ENABLE();
 308              		.loc 1 89 9 view .LVU90
 309 00ec 5A6C     		ldr	r2, [r3, #68]
 310 00ee 02F02002 		and	r2, r2, #32
 311 00f2 0592     		str	r2, [sp, #20]
  89:Core/Src/usart.c ****         __HAL_RCC_GPIOA_CLK_ENABLE();
 312              		.loc 1 89 9 view .LVU91
 313 00f4 059A     		ldr	r2, [sp, #20]
 314              	.LBE6:
  89:Core/Src/usart.c ****         __HAL_RCC_GPIOA_CLK_ENABLE();
 315              		.loc 1 89 9 view .LVU92
  90:Core/Src/usart.c ****         
 316              		.loc 1 90 9 view .LVU93
 317              	.LBB7:
  90:Core/Src/usart.c ****         
 318              		.loc 1 90 9 view .LVU94
 319 00f6 0691     		str	r1, [sp, #24]
  90:Core/Src/usart.c ****         
 320              		.loc 1 90 9 view .LVU95
 321 00f8 1A6B     		ldr	r2, [r3, #48]
 322 00fa 42F00102 		orr	r2, r2, #1
 323 00fe 1A63     		str	r2, [r3, #48]
  90:Core/Src/usart.c ****         
 324              		.loc 1 90 9 view .LVU96
 325 0100 1B6B     		ldr	r3, [r3, #48]
 326 0102 03F00103 		and	r3, r3, #1
 327 0106 0693     		str	r3, [sp, #24]
  90:Core/Src/usart.c ****         
 328              		.loc 1 90 9 view .LVU97
 329 0108 069B     		ldr	r3, [sp, #24]
 330              	.LBE7:
  90:Core/Src/usart.c ****         
 331              		.loc 1 90 9 view .LVU98
  96:Core/Src/usart.c ****         GPIO_InitStruct.Mode = GPIO_MODE_AF_PP;
 332              		.loc 1 96 9 view .LVU99
  96:Core/Src/usart.c ****         GPIO_InitStruct.Mode = GPIO_MODE_AF_PP;
 333              		.loc 1 96 29 is_stmt 0 view .LVU100
 334 010a 4FF4C053 		mov	r3, #6144
 335 010e 0793     		str	r3, [sp, #28]
  97:Core/Src/usart.c ****         GPIO_InitStruct.Pull = GPIO_PULLUP;
 336              		.loc 1 97 9 is_stmt 1 view .LVU101
  97:Core/Src/usart.c ****         GPIO_InitStruct.Pull = GPIO_PULLUP;
 337              		.loc 1 97 30 is_stmt 0 view .LVU102
 338 0110 0223     		movs	r3, #2
 339 0112 0893     		str	r3, [sp, #32]
  98:Core/Src/usart.c ****         GPIO_InitStruct.Speed = GPIO_SPEED_FREQ_VERY_HIGH;
ARM GAS  /tmp/ccf8WyXC.s 			page 10


 340              		.loc 1 98 9 is_stmt 1 view .LVU103
  98:Core/Src/usart.c ****         GPIO_InitStruct.Speed = GPIO_SPEED_FREQ_VERY_HIGH;
 341              		.loc 1 98 30 is_stmt 0 view .LVU104
 342 0114 0123     		movs	r3, #1
 343 0116 0993     		str	r3, [sp, #36]
  99:Core/Src/usart.c ****         GPIO_InitStruct.Alternate = GPIO_AF8_USART6;
 344              		.loc 1 99 9 is_stmt 1 view .LVU105
  99:Core/Src/usart.c ****         GPIO_InitStruct.Alternate = GPIO_AF8_USART6;
 345              		.loc 1 99 31 is_stmt 0 view .LVU106
 346 0118 0323     		movs	r3, #3
 347 011a 0A93     		str	r3, [sp, #40]
 100:Core/Src/usart.c ****         HAL_GPIO_Init(GPIOA, &GPIO_InitStruct);
 348              		.loc 1 100 9 is_stmt 1 view .LVU107
 100:Core/Src/usart.c ****         HAL_GPIO_Init(GPIOA, &GPIO_InitStruct);
 349              		.loc 1 100 35 is_stmt 0 view .LVU108
 350 011c 0823     		movs	r3, #8
 351 011e 0B93     		str	r3, [sp, #44]
 101:Core/Src/usart.c ****         
 352              		.loc 1 101 9 is_stmt 1 view .LVU109
 353 0120 07A9     		add	r1, sp, #28
 354 0122 0A48     		ldr	r0, .L15+16
 355              	.LVL15:
 101:Core/Src/usart.c ****         
 356              		.loc 1 101 9 is_stmt 0 view .LVU110
 357 0124 FFF7FEFF 		bl	HAL_GPIO_Init
 358              	.LVL16:
 104:Core/Src/usart.c ****         HAL_NVIC_EnableIRQ(USART6_IRQn);
 359              		.loc 1 104 9 is_stmt 1 view .LVU111
 360 0128 0022     		movs	r2, #0
 361 012a 1146     		mov	r1, r2
 362 012c 4720     		movs	r0, #71
 363 012e FFF7FEFF 		bl	HAL_NVIC_SetPriority
 364              	.LVL17:
 105:Core/Src/usart.c ****     }
 365              		.loc 1 105 9 view .LVU112
 366 0132 4720     		movs	r0, #71
 367 0134 FFF7FEFF 		bl	HAL_NVIC_EnableIRQ
 368              	.LVL18:
 369              		.loc 1 107 1 is_stmt 0 view .LVU113
 370 0138 74E7     		b	.L7
 371              	.L16:
 372 013a 00BF     		.align	2
 373              	.L15:
 374 013c 00440040 		.word	1073759232
 375 0140 00100140 		.word	1073811456
 376 0144 00140140 		.word	1073812480
 377 0148 00380240 		.word	1073887232
 378 014c 00000240 		.word	1073872896
 379              		.cfi_endproc
 380              	.LFE135:
 382              		.section	.text.HAL_UART_MspDeInit,"ax",%progbits
 383              		.align	1
 384              		.global	HAL_UART_MspDeInit
 385              		.syntax unified
 386              		.thumb
 387              		.thumb_func
 389              	HAL_UART_MspDeInit:
ARM GAS  /tmp/ccf8WyXC.s 			page 11


 390              	.LVL19:
 391              	.LFB136:
 108:Core/Src/usart.c **** 
 109:Core/Src/usart.c **** /**
 110:Core/Src/usart.c ****   * @brief UART MSP De-Initialization
 111:Core/Src/usart.c ****   */
 112:Core/Src/usart.c **** void HAL_UART_MspDeInit(UART_HandleTypeDef* huart)
 113:Core/Src/usart.c **** {
 392              		.loc 1 113 1 is_stmt 1 view -0
 393              		.cfi_startproc
 394              		@ args = 0, pretend = 0, frame = 0
 395              		@ frame_needed = 0, uses_anonymous_args = 0
 396              		.loc 1 113 1 is_stmt 0 view .LVU115
 397 0000 08B5     		push	{r3, lr}
 398              	.LCFI5:
 399              		.cfi_def_cfa_offset 8
 400              		.cfi_offset 3, -8
 401              		.cfi_offset 14, -4
 114:Core/Src/usart.c ****     if (huart->Instance == USART2)
 402              		.loc 1 114 5 is_stmt 1 view .LVU116
 403              		.loc 1 114 14 is_stmt 0 view .LVU117
 404 0002 0368     		ldr	r3, [r0]
 405              		.loc 1 114 8 view .LVU118
 406 0004 164A     		ldr	r2, .L25
 407 0006 9342     		cmp	r3, r2
 408 0008 06D0     		beq	.L22
 115:Core/Src/usart.c ****     {
 116:Core/Src/usart.c ****         __HAL_RCC_USART2_CLK_DISABLE();
 117:Core/Src/usart.c ****         HAL_GPIO_DeInit(GPIOA, GPIO_PIN_2 | GPIO_PIN_3);
 118:Core/Src/usart.c ****     }
 119:Core/Src/usart.c ****     else if (huart->Instance == USART1)
 409              		.loc 1 119 10 is_stmt 1 view .LVU119
 410              		.loc 1 119 13 is_stmt 0 view .LVU120
 411 000a 164A     		ldr	r2, .L25+4
 412 000c 9342     		cmp	r3, r2
 413 000e 0ED0     		beq	.L23
 120:Core/Src/usart.c ****     {
 121:Core/Src/usart.c ****         __HAL_RCC_USART1_CLK_DISABLE();
 122:Core/Src/usart.c ****         HAL_GPIO_DeInit(GPIOA, GPIO_PIN_9 | GPIO_PIN_10);
 123:Core/Src/usart.c ****     }
 124:Core/Src/usart.c ****     else if (huart->Instance == USART6)
 414              		.loc 1 124 10 is_stmt 1 view .LVU121
 415              		.loc 1 124 13 is_stmt 0 view .LVU122
 416 0010 154A     		ldr	r2, .L25+8
 417 0012 9342     		cmp	r3, r2
 418 0014 17D0     		beq	.L24
 419              	.LVL20:
 420              	.L17:
 125:Core/Src/usart.c ****     {
 126:Core/Src/usart.c ****         __HAL_RCC_USART6_CLK_DISABLE();
 127:Core/Src/usart.c ****         HAL_GPIO_DeInit(GPIOA, GPIO_PIN_11 | GPIO_PIN_12);
 128:Core/Src/usart.c ****     }
 129:Core/Src/usart.c **** }
 421              		.loc 1 129 1 view .LVU123
 422 0016 08BD     		pop	{r3, pc}
 423              	.LVL21:
 424              	.L22:
ARM GAS  /tmp/ccf8WyXC.s 			page 12


 116:Core/Src/usart.c ****         HAL_GPIO_DeInit(GPIOA, GPIO_PIN_2 | GPIO_PIN_3);
 425              		.loc 1 116 9 is_stmt 1 view .LVU124
 426 0018 02F5FA32 		add	r2, r2, #128000
 427 001c 136C     		ldr	r3, [r2, #64]
 428 001e 23F40033 		bic	r3, r3, #131072
 429 0022 1364     		str	r3, [r2, #64]
 117:Core/Src/usart.c ****     }
 430              		.loc 1 117 9 view .LVU125
 431 0024 0C21     		movs	r1, #12
 432 0026 1148     		ldr	r0, .L25+12
 433              	.LVL22:
 117:Core/Src/usart.c ****     }
 434              		.loc 1 117 9 is_stmt 0 view .LVU126
 435 0028 FFF7FEFF 		bl	HAL_GPIO_DeInit
 436              	.LVL23:
 437 002c F3E7     		b	.L17
 438              	.LVL24:
 439              	.L23:
 121:Core/Src/usart.c ****         HAL_GPIO_DeInit(GPIOA, GPIO_PIN_9 | GPIO_PIN_10);
 440              		.loc 1 121 9 is_stmt 1 view .LVU127
 441 002e 02F59432 		add	r2, r2, #75776
 442 0032 536C     		ldr	r3, [r2, #68]
 443 0034 23F01003 		bic	r3, r3, #16
 444 0038 5364     		str	r3, [r2, #68]
 122:Core/Src/usart.c ****     }
 445              		.loc 1 122 9 view .LVU128
 446 003a 4FF4C061 		mov	r1, #1536
 447 003e 0B48     		ldr	r0, .L25+12
 448              	.LVL25:
 122:Core/Src/usart.c ****     }
 449              		.loc 1 122 9 is_stmt 0 view .LVU129
 450 0040 FFF7FEFF 		bl	HAL_GPIO_DeInit
 451              	.LVL26:
 452 0044 E7E7     		b	.L17
 453              	.LVL27:
 454              	.L24:
 126:Core/Src/usart.c ****         HAL_GPIO_DeInit(GPIOA, GPIO_PIN_11 | GPIO_PIN_12);
 455              		.loc 1 126 9 is_stmt 1 view .LVU130
 456 0046 02F59232 		add	r2, r2, #74752
 457 004a 536C     		ldr	r3, [r2, #68]
 458 004c 23F02003 		bic	r3, r3, #32
 459 0050 5364     		str	r3, [r2, #68]
 127:Core/Src/usart.c ****     }
 460              		.loc 1 127 9 view .LVU131
 461 0052 4FF4C051 		mov	r1, #6144
 462 0056 0548     		ldr	r0, .L25+12
 463              	.LVL28:
 127:Core/Src/usart.c ****     }
 464              		.loc 1 127 9 is_stmt 0 view .LVU132
 465 0058 FFF7FEFF 		bl	HAL_GPIO_DeInit
 466              	.LVL29:
 467              		.loc 1 129 1 view .LVU133
 468 005c DBE7     		b	.L17
 469              	.L26:
 470 005e 00BF     		.align	2
 471              	.L25:
 472 0060 00440040 		.word	1073759232
ARM GAS  /tmp/ccf8WyXC.s 			page 13


 473 0064 00100140 		.word	1073811456
 474 0068 00140140 		.word	1073812480
 475 006c 00000240 		.word	1073872896
 476              		.cfi_endproc
 477              	.LFE136:
 479              		.global	huart6
 480              		.section	.bss.huart6,"aw",%nobits
 481              		.align	2
 484              	huart6:
 485 0000 00000000 		.space	72
 485      00000000 
 485      00000000 
 485      00000000 
 485      00000000 
 486              		.global	huart2
 487              		.section	.bss.huart2,"aw",%nobits
 488              		.align	2
 491              	huart2:
 492 0000 00000000 		.space	72
 492      00000000 
 492      00000000 
 492      00000000 
 492      00000000 
 493              		.global	huart1
 494              		.section	.bss.huart1,"aw",%nobits
 495              		.align	2
 498              	huart1:
 499 0000 00000000 		.space	72
 499      00000000 
 499      00000000 
 499      00000000 
 499      00000000 
 500              		.text
 501              	.Letext0:
 502              		.file 2 "Drivers/CMSIS/Device/ST/STM32F4xx/Include/stm32f411xe.h"
 503              		.file 3 "/usr/arm-none-eabi/include/machine/_default_types.h"
 504              		.file 4 "/usr/arm-none-eabi/include/sys/_stdint.h"
 505              		.file 5 "Drivers/STM32F4xx_HAL_Driver/Inc/stm32f4xx_hal_def.h"
 506              		.file 6 "Drivers/STM32F4xx_HAL_Driver/Inc/stm32f4xx_hal_gpio.h"
 507              		.file 7 "Drivers/STM32F4xx_HAL_Driver/Inc/stm32f4xx_hal_dma.h"
 508              		.file 8 "Drivers/STM32F4xx_HAL_Driver/Inc/stm32f4xx_hal_uart.h"
 509              		.file 9 "Core/Inc/usart.h"
 510              		.file 10 "Drivers/STM32F4xx_HAL_Driver/Inc/stm32f4xx_hal_cortex.h"
 511              		.file 11 "Core/Inc/main.h"
ARM GAS  /tmp/ccf8WyXC.s 			page 14

